; Function Attrs: mustprogress uwtable
define noundef i64 @_ZN6google8protobuf8internal10WireFormat22MessageSetItemByteSizeEPKNS0_15FieldDescriptorERKNS0_7MessageE(ptr noundef %field, ptr noundef nonnull align 8 dereferenceable(16) %message) local_unnamed_addr #3 align 2 personality ptr @__gxx_personality_v0 {
entry:
  %vtable.i = load ptr, ptr %message, align 8
  %vfn.i = getelementptr inbounds nuw i8, ptr %vtable.i, i64 80
  %0 = load ptr, ptr %vfn.i, align 8
  %call.i = tail call { ptr, ptr } %0(ptr noundef nonnull align 8 dereferenceable(16) %message)
  %1 = extractvalue { ptr, ptr } %call.i, 1
  %2 = load i64, ptr @_ZN6google8protobuf8internal14WireFormatLite23kMessageSetItemTagsSizeE, align 8
  %number_.i = getelementptr inbounds nuw i8, ptr %field, i64 4
  %3 = load i32, ptr %number_.i, align 4
  %or.i = or i32 %3, 1
  %4 = tail call noundef range(i32 0, 33) i32 @llvm.ctlz.i32(i32 %or.i, i1 true)
  %sub.i = xor i32 %4, 31
  %mul.i = mul nuw nsw i32 %sub.i, 9
  %add.i = add nuw nsw i32 %mul.i, 73
  %div1.i = lshr i32 %add.i, 6
  %conv.i = zext nneg i32 %div1.i to i64
  %call3 = tail call noundef nonnull align 8 dereferenceable(16) ptr @_ZNK6google8protobuf10Reflection10GetMessageERKNS0_7MessageEPKNS0_15FieldDescriptorEPNS0_14MessageFactoryE(ptr noundef nonnull align 8 dereferenceable(112) %1, ptr noundef nonnull align 8 dereferenceable(16) %message, ptr noundef nonnull %field, ptr noundef null)
  %vtable = load ptr, ptr %call3, align 8
  %vfn = getelementptr inbounds nuw i8, ptr %vtable, i64 48
  %5 = load ptr, ptr %vfn, align 8
  %call4 = tail call noundef i64 %5(ptr noundef nonnull align 8 dereferenceable(16) %call3)
  %conv = trunc i64 %call4 to i32
  %or.i7 = or i32 %conv, 1
  %6 = tail call noundef range(i32 0, 33) i32 @llvm.ctlz.i32(i32 %or.i7, i1 true)
  %sub.i8 = xor i32 %6, 31
  %mul.i9 = mul nuw nsw i32 %sub.i8, 9
  %add.i10 = add nuw nsw i32 %mul.i9, 73
  %div1.i11 = lshr i32 %add.i10, 6
  %conv.i12 = zext nneg i32 %div1.i11 to i64
  %add = add i64 %call4, %2
  %add6 = add i64 %add, %conv.i
  %add7 = add i64 %add6, %conv.i12
  ret i64 %add7
}